; Function Attrs: mustprogress uwtable
define dso_local { ptr, i8 } @_ZN4Luau28TypeFunctionReductionGuesser5guessEPKNS_4TypeE(ptr noundef nonnull align 8 dereferenceable(176) %0, ptr noundef %1) local_unnamed_addr #8 align 2 personality ptr @__gxx_personality_v0 {
  %3 = tail call { ptr, i8 } @_ZN4Luau28TypeFunctionReductionGuesser9guessTypeEPKNS_4TypeE(ptr noundef nonnull align 8 dereferenceable(176) %0, ptr noundef %1)
  %4 = extractvalue { ptr, i8 } %3, 1
  %5 = trunc nuw i8 %4 to i1
  br i1 %5, label %6, label %_ZN4Luau3getINS_24TypeFunctionInstanceTypeEEEPKT_PKNS_4TypeE.exit

6:                                                ; preds = %2
  %7 = extractvalue { ptr, i8 } %3, 0
  %8 = tail call noundef ptr @_ZN4Luau6followEPKNS_4TypeE(ptr noundef %7)
  %.not.i.i = icmp eq ptr %8, null
  br i1 %.not.i.i, label %12, label %9

9:                                                ; preds = %6
  %10 = load i32, ptr %8, align 8, !tbaa !85
  %11 = icmp eq i32 %10, 20
  br i1 %11, label %_ZN4Luau3getINS_24TypeFunctionInstanceTypeEEEPKT_PKNS_4TypeE.exit, label %12

12:                                               ; preds = %9, %6
  br label %_ZN4Luau3getINS_24TypeFunctionInstanceTypeEEEPKT_PKNS_4TypeE.exit

_ZN4Luau3getINS_24TypeFunctionInstanceTypeEEEPKT_PKNS_4TypeE.exit: ; preds = %12, %9, %2
  %.sroa.02.0 = phi ptr [ undef, %2 ], [ %8, %9 ], [ %8, %12 ]
  %.sroa.2.0 = phi i8 [ 0, %2 ], [ 0, %9 ], [ 1, %12 ]
  %.fca.0.insert = insertvalue { ptr, i8 } poison, ptr %.sroa.02.0, 0
  %.fca.1.insert = insertvalue { ptr, i8 } %.fca.0.insert, i8 %.sroa.2.0, 1
  ret { ptr, i8 } %.fca.1.insert
}